; Function Attrs: mustprogress uwtable
define void @_ZN6icu_7514NFSubstitution23setDecimalFormatSymbolsERKNS_20DecimalFormatSymbolsER10UErrorCode(ptr nocapture noundef nonnull readonly align 8 dereferenceable(32) %this, ptr noundef nonnull align 8 dereferenceable(2883) %newSymbols, ptr nocapture noundef nonnull readnone align 4 dereferenceable(4) %0) local_unnamed_addr #2 align 2 {
entry:
  %numberFormat = getelementptr inbounds i8, ptr %this, i64 24
  %1 = load ptr, ptr %numberFormat, align 8
  %cmp.not = icmp eq ptr %1, null
  br i1 %cmp.not, label %if.end, label %if.then

if.then:                                          ; preds = %entry
  %vtable = load ptr, ptr %1, align 8
  %vfn = getelementptr inbounds i8, ptr %vtable, i64 328
  %2 = load ptr, ptr %vfn, align 8
  tail call void %2(ptr noundef nonnull align 8 dereferenceable(368) %1, ptr noundef nonnull align 8 dereferenceable(2883) %newSymbols)
  br label %if.end

if.end:                                           ; preds = %if.then, %entry
  ret void
}